target datalayout = "e-m:e-p270:32:32-p271:32:32-p272:64:64-i64:64-i128:128-f80:128-n8:16:32:64-S128"
target triple = "x86_64-pc-linux-gnu"

%struct._GtkDialog = type { %struct._GtkWindow, ptr, ptr, ptr }
%struct._GtkWindow = type <{ %struct._GtkBin, ptr, ptr, ptr, ptr, ptr, ptr, ptr, ptr, ptr, ptr, i16, i32, [2 x i8], i32, i32, i32, i32, i32, i32, ptr }>
%struct._GtkBin = type { %struct._GtkContainer, ptr }
%struct._GtkContainer = type { %struct._GtkWidget, ptr, i32 }
%struct._GtkWidget = type { %struct._GtkObject, i16, i8, i8, ptr, ptr, %struct._GtkRequisition, %struct._GdkRectangle, ptr, ptr }
%struct._GtkObject = type { %struct._GObject, i32 }
%struct._GObject = type { %struct._GTypeInstance, i32, ptr }
%struct._GTypeInstance = type { ptr }
%struct._GtkRequisition = type { i32, i32 }
%struct._GdkRectangle = type { i32, i32, i32, i32 }

@main_window = external global ptr, align 8
@.str.38 = private unnamed_addr constant [8 x i8] c"Reason \00", align 1
@.str.39 = private unnamed_addr constant [20 x i8] c"State change reason\00", align 1
@.str.40 = private unnamed_addr constant [7 x i8] c"gtk-ok\00", align 1
@.str.41 = private unnamed_addr constant [11 x i8] c"gtk-cancel\00", align 1
@.str.42 = private unnamed_addr constant [3 x i8] c" [\00", align 1
@.str.43 = private unnamed_addr constant [3 x i8] c"%u\00", align 1
@.str.44 = private unnamed_addr constant [5 x i8] c"@%s]\00", align 1
@.str.45 = private unnamed_addr constant [10 x i8] c"cancelled\00", align 1

; Function Attrs: nounwind uwtable
define dso_local ptr @get_reason() #0 {
  %1 = alloca ptr, align 8
  %2 = alloca i32, align 4
  %3 = alloca ptr, align 8
  %4 = alloca ptr, align 8
  %5 = alloca ptr, align 8
  %6 = alloca ptr, align 8
  %7 = alloca i32, align 4
  %8 = alloca ptr, align 8
  %9 = alloca [256 x i8], align 16
  %10 = alloca i64, align 8
  call void @llvm.lifetime.start.p0(i64 8, ptr %1) #11
  store ptr null, ptr %1, align 8
  call void @llvm.lifetime.start.p0(i64 4, ptr %2) #11
  store i32 0, ptr %2, align 4
  call void @llvm.lifetime.start.p0(i64 8, ptr %3) #11
  %11 = call ptr @gtk_table_new(i32 noundef 1, i32 noundef 2, i32 noundef 0)
  store ptr %11, ptr %3, align 8
  call void @llvm.lifetime.start.p0(i64 8, ptr %4) #11
  %12 = call ptr @gtk_label_new(ptr noundef @.str.38)
  store ptr %12, ptr %4, align 8
  call void @llvm.lifetime.start.p0(i64 8, ptr %5) #11
  %13 = call ptr @gtk_entry_new()
  store ptr %13, ptr %5, align 8
  call void @llvm.lifetime.start.p0(i64 8, ptr %6) #11
  %14 = load ptr, ptr @main_window, align 8
  %15 = call i64 @gtk_window_get_type() #12
  %16 = call ptr @g_type_check_instance_cast(ptr noundef %14, i64 noundef %15)
  %17 = call ptr (ptr, ptr, i32, ptr, ...) @gtk_dialog_new_with_buttons(ptr noundef @.str.39, ptr noundef %16, i32 noundef 3, ptr noundef @.str.40, i32 noundef -5, ptr noundef @.str.41, i32 noundef -6, ptr noundef null)
  store ptr %17, ptr %6, align 8
  call void @llvm.lifetime.start.p0(i64 4, ptr %7) #11
  store i32 0, ptr %7, align 4
  call void @llvm.lifetime.start.p0(i64 8, ptr %8) #11
  store ptr null, ptr %8, align 8
  call void @llvm.lifetime.start.p0(i64 256, ptr %9) #11
  call void @llvm.lifetime.start.p0(i64 8, ptr %10) #11
  %18 = call i64 @time(ptr noundef null) #11
  store i64 %18, ptr %10, align 8
  %19 = load ptr, ptr %6, align 8
  %20 = call i64 @gtk_window_get_type() #12
  %21 = call ptr @g_type_check_instance_cast(ptr noundef %19, i64 noundef %20)
  call void @gtk_window_set_type_hint(ptr noundef %21, i32 noundef 0)
  %22 = load ptr, ptr %3, align 8
  %23 = call i64 @gtk_container_get_type() #12
  %24 = call ptr @g_type_check_instance_cast(ptr noundef %22, i64 noundef %23)
  call void @gtk_container_set_border_width(ptr noundef %24, i32 noundef 10)
  %25 = load ptr, ptr %6, align 8
  %26 = call i64 @gtk_dialog_get_type() #12
  %27 = call ptr @g_type_check_instance_cast(ptr noundef %25, i64 noundef %26)
  %28 = getelementptr inbounds nuw %struct._GtkDialog, ptr %27, i32 0, i32 1
  %29 = load ptr, ptr %28, align 8
  %30 = call i64 @gtk_box_get_type() #12
  %31 = call ptr @g_type_check_instance_cast(ptr noundef %29, i64 noundef %30)
  %32 = load ptr, ptr %3, align 8
  call void @gtk_box_pack_start(ptr noundef %31, ptr noundef %32, i32 noundef 0, i32 noundef 0, i32 noundef 0)
  %33 = load ptr, ptr %3, align 8
  %34 = call i64 @gtk_table_get_type() #12
  %35 = call ptr @g_type_check_instance_cast(ptr noundef %33, i64 noundef %34)
  %36 = load ptr, ptr %4, align 8
  call void @gtk_table_attach_defaults(ptr noundef %35, ptr noundef %36, i32 noundef 0, i32 noundef 1, i32 noundef 0, i32 noundef 1)
  %37 = load ptr, ptr %3, align 8
  %38 = call i64 @gtk_table_get_type() #12
  %39 = call ptr @g_type_check_instance_cast(ptr noundef %37, i64 noundef %38)
  %40 = load ptr, ptr %5, align 8
  call void @gtk_table_attach_defaults(ptr noundef %39, ptr noundef %40, i32 noundef 1, i32 noundef 2, i32 noundef 0, i32 noundef 1)
  %41 = load ptr, ptr %6, align 8
  call void @gtk_widget_show_all(ptr noundef %41)
  %42 = load ptr, ptr %6, align 8
  %43 = call i64 @gtk_dialog_get_type() #12
  %44 = call ptr @g_type_check_instance_cast(ptr noundef %42, i64 noundef %43)
  %45 = call i32 @gtk_dialog_run(ptr noundef %44)
  store i32 %45, ptr %7, align 4
  %46 = load i32, ptr %7, align 4
  %47 = icmp eq i32 %46, -5
  br i1 %47, label %48, label %72

48:                                               ; preds = %0
  %49 = load ptr, ptr %5, align 8
  %50 = call i64 @gtk_entry_get_type() #12
  %51 = call ptr @g_type_check_instance_cast(ptr noundef %49, i64 noundef %50)
  %52 = call ptr @gtk_entry_get_text(ptr noundef %51)
  %53 = call ptr @xstrdup(ptr noundef %52)
  store ptr %53, ptr %1, align 8
  %54 = load ptr, ptr %1, align 8
  %55 = call i64 @strlen(ptr noundef %54) #13
  %56 = sub i64 %55, 1
  %57 = trunc i64 %56 to i32
  store i32 %57, ptr %2, align 4
  %58 = load i32, ptr %2, align 4
  %59 = icmp eq i32 %58, -1
  br i1 %59, label %60, label %61

60:                                               ; preds = %48
  call void @slurm_xfree(ptr noundef %1)
  store ptr null, ptr %1, align 8
  br label %75

61:                                               ; preds = %48
  call void @_xstrcat(ptr noundef %1, ptr noundef @.str.42)
  %62 = call ptr @getlogin()
  store ptr %62, ptr %8, align 8
  %63 = load ptr, ptr %8, align 8
  %64 = icmp ne ptr %63, null
  br i1 %64, label %65, label %67

65:                                               ; preds = %61
  %66 = load ptr, ptr %8, align 8
  call void @_xstrcat(ptr noundef %1, ptr noundef %66)
  br label %69

67:                                               ; preds = %61
  %68 = call i32 @getuid() #11
  call void (ptr, ptr, ...) @_xstrfmtcat(ptr noundef %1, ptr noundef @.str.43, i32 noundef %68)
  br label %69

69:                                               ; preds = %67, %65
  %70 = getelementptr inbounds [256 x i8], ptr %9, i64 0, i64 0
  call void @slurm_make_time_str(ptr noundef %10, ptr noundef %70, i32 noundef 256)
  %71 = getelementptr inbounds [256 x i8], ptr %9, i64 0, i64 0
  call void (ptr, ptr, ...) @_xstrfmtcat(ptr noundef %1, ptr noundef @.str.44, ptr noundef %71)
  br label %74

72:                                               ; preds = %0
  %73 = call ptr @xstrdup(ptr noundef @.str.45)
  store ptr %73, ptr %1, align 8
  br label %74

74:                                               ; preds = %72, %69
  br label %75

75:                                               ; preds = %74, %60
  %76 = load ptr, ptr %6, align 8
  call void @gtk_widget_destroy(ptr noundef %76)
  %77 = load ptr, ptr %1, align 8
  call void @llvm.lifetime.end.p0(i64 8, ptr %10) #11
  call void @llvm.lifetime.end.p0(i64 256, ptr %9) #11
  call void @llvm.lifetime.end.p0(i64 8, ptr %8) #11
  call void @llvm.lifetime.end.p0(i64 4, ptr %7) #11
  call void @llvm.lifetime.end.p0(i64 8, ptr %6) #11
  call void @llvm.lifetime.end.p0(i64 8, ptr %5) #11
  call void @llvm.lifetime.end.p0(i64 8, ptr %4) #11
  call void @llvm.lifetime.end.p0(i64 8, ptr %3) #11
  call void @llvm.lifetime.end.p0(i64 4, ptr %2) #11
  call void @llvm.lifetime.end.p0(i64 8, ptr %1) #11
  ret ptr %77
}