; Function Attrs: nounwind uwtable
define dso_local ptr @get_reason() local_unnamed_addr #2 {
  %1 = alloca ptr, align 8
  %2 = alloca [256 x i8], align 16
  %3 = alloca i64, align 8
  call void @llvm.lifetime.start.p0(i64 8, ptr nonnull %1) #16
  store ptr null, ptr %1, align 8
  %4 = tail call ptr @gtk_table_new(i32 noundef 1, i32 noundef 2, i32 noundef 0) #16
  %5 = tail call ptr @gtk_label_new(ptr noundef nonnull @.str.38) #16
  %6 = tail call ptr @gtk_entry_new() #16
  %7 = load ptr, ptr @main_window, align 8
  %8 = tail call i64 @gtk_window_get_type() #17
  %9 = tail call ptr @g_type_check_instance_cast(ptr noundef %7, i64 noundef %8) #16
  %10 = tail call ptr (ptr, ptr, i32, ptr, ...) @gtk_dialog_new_with_buttons(ptr noundef nonnull @.str.39, ptr noundef %9, i32 noundef 3, ptr noundef nonnull @.str.40, i32 noundef -5, ptr noundef nonnull @.str.41, i32 noundef -6, ptr noundef null) #16
  call void @llvm.lifetime.start.p0(i64 256, ptr nonnull %2) #16
  call void @llvm.lifetime.start.p0(i64 8, ptr nonnull %3) #16
  %11 = tail call i64 @time(ptr noundef null) #16
  store i64 %11, ptr %3, align 8
  %12 = tail call ptr @g_type_check_instance_cast(ptr noundef %10, i64 noundef %8) #16
  tail call void @gtk_window_set_type_hint(ptr noundef %12, i32 noundef 0) #16
  %13 = tail call i64 @gtk_container_get_type() #17
  %14 = tail call ptr @g_type_check_instance_cast(ptr noundef %4, i64 noundef %13) #16
  tail call void @gtk_container_set_border_width(ptr noundef %14, i32 noundef 10) #16
  %15 = tail call i64 @gtk_dialog_get_type() #17
  %16 = tail call ptr @g_type_check_instance_cast(ptr noundef %10, i64 noundef %15) #16
  %17 = getelementptr inbounds nuw i8, ptr %16, i64 240
  %18 = load ptr, ptr %17, align 8
  %19 = tail call i64 @gtk_box_get_type() #17
  %20 = tail call ptr @g_type_check_instance_cast(ptr noundef %18, i64 noundef %19) #16
  tail call void @gtk_box_pack_start(ptr noundef %20, ptr noundef %4, i32 noundef 0, i32 noundef 0, i32 noundef 0) #16
  %21 = tail call i64 @gtk_table_get_type() #17
  %22 = tail call ptr @g_type_check_instance_cast(ptr noundef %4, i64 noundef %21) #16
  tail call void @gtk_table_attach_defaults(ptr noundef %22, ptr noundef %5, i32 noundef 0, i32 noundef 1, i32 noundef 0, i32 noundef 1) #16
  %23 = tail call ptr @g_type_check_instance_cast(ptr noundef %4, i64 noundef %21) #16
  tail call void @gtk_table_attach_defaults(ptr noundef %23, ptr noundef %6, i32 noundef 1, i32 noundef 2, i32 noundef 0, i32 noundef 1) #16
  tail call void @gtk_widget_show_all(ptr noundef %10) #16
  %24 = tail call ptr @g_type_check_instance_cast(ptr noundef %10, i64 noundef %15) #16
  %25 = tail call i32 @gtk_dialog_run(ptr noundef %24) #16
  %26 = icmp eq i32 %25, -5
  br i1 %26, label %27, label %42

27:                                               ; preds = %0
  %28 = tail call i64 @gtk_entry_get_type() #17
  %29 = tail call ptr @g_type_check_instance_cast(ptr noundef %6, i64 noundef %28) #16
  %30 = tail call ptr @gtk_entry_get_text(ptr noundef %29) #16
  %31 = tail call ptr @xstrdup(ptr noundef %30) #16
  store ptr %31, ptr %1, align 8
  %32 = tail call i64 @strlen(ptr noundef nonnull dereferenceable(1) %31) #18
  %33 = and i64 %32, 4294967295
  %34 = icmp eq i64 %33, 0
  br i1 %34, label %35, label %36

35:                                               ; preds = %27
  call void @slurm_xfree(ptr noundef nonnull %1) #16
  store ptr null, ptr %1, align 8
  br label %44

36:                                               ; preds = %27
  call void @_xstrcat(ptr noundef nonnull %1, ptr noundef nonnull @.str.42) #16
  %37 = call ptr @getlogin() #16
  %.not = icmp eq ptr %37, null
  br i1 %.not, label %39, label %38

38:                                               ; preds = %36
  call void @_xstrcat(ptr noundef nonnull %1, ptr noundef nonnull %37) #16
  br label %41

39:                                               ; preds = %36
  %40 = call i32 @getuid() #16
  call void (ptr, ptr, ...) @_xstrfmtcat(ptr noundef nonnull %1, ptr noundef nonnull @.str.43, i32 noundef %40) #16
  br label %41

41:                                               ; preds = %39, %38
  call void @slurm_make_time_str(ptr noundef nonnull %3, ptr noundef nonnull %2, i32 noundef 256) #16
  call void (ptr, ptr, ...) @_xstrfmtcat(ptr noundef nonnull %1, ptr noundef nonnull @.str.44, ptr noundef nonnull %2) #16
  br label %44

42:                                               ; preds = %0
  %43 = tail call ptr @xstrdup(ptr noundef nonnull @.str.45) #16
  store ptr %43, ptr %1, align 8
  br label %44

44:                                               ; preds = %41, %42, %35
  call void @gtk_widget_destroy(ptr noundef %10) #16
  %45 = load ptr, ptr %1, align 8
  call void @llvm.lifetime.end.p0(i64 8, ptr nonnull %3) #16
  call void @llvm.lifetime.end.p0(i64 256, ptr nonnull %2) #16
  call void @llvm.lifetime.end.p0(i64 8, ptr nonnull %1) #16
  ret ptr %45
}